(dp1
S'files'
p2
(dp3
S'publication_managers'
p4
(dp5
S'index'
p6
(dp7
S'par'
p8
I0
sS'html_filename'
p9
S'publication_managers.html'
p10
sS'name'
p11
S'publication/managers'
p12
sS'nums'
p13
ccopy_reg
_reconstructor
p14
(ccoverage.results
Numbers
p15
c__builtin__
object
p16
NtRp17
(dp18
S'n_files'
p19
I1
sS'n_branches'
p20
I0
sS'n_statements'
p21
I39
sS'n_excluded'
p22
I0
sS'n_missing'
p23
I18
sS'n_missing_branches'
p24
I0
sbssS'hash'
p25
S'\xe4\xa9\xeb\x89\x03nZ\x05\xe5\xca\x08i\x80\xd9DT'
p26
ssS'publication_tests___init__'
p27
(dp28
g6
(dp29
g8
I0
sg9
S'publication_tests___init__.html'
p30
sg11
S'publication/tests/__init__'
p31
sg13
g14
(g15
g16
NtRp32
(dp33
g19
I1
sg20
I0
sg21
I1
sg22
I0
sg23
I0
sg24
I0
sbssg25
S'\xe4\xfd\xa2\xb4\x99\xd4Z\x88\xc5Ck7d\xbe\x93t'
p34
ssS'publication_forms'
p35
(dp36
g6
(dp37
g8
I0
sg9
S'publication_forms.html'
p38
sg11
S'publication/forms'
p39
sg13
g14
(g15
g16
NtRp40
(dp41
g19
I1
sg20
I0
sg21
I27
sg22
I0
sg23
I9
sg24
I0
sbssg25
S'\xe2\x92d\x1a\x89$I\xbd\x9c\x89qH@\xd5\xfcU'
p42
ssS'website_tests'
p43
(dp44
g6
(dp45
g8
I0
sg9
S'website_tests.html'
p46
sg11
S'website/tests'
p47
sg13
g14
(g15
g16
NtRp48
(dp49
g19
I1
sg20
I0
sg21
I5
sg22
I0
sg23
I0
sg24
I0
sbssg25
S'\x19:\\eOR\xb9\xc9\xdd_\t\xf5\xbd\xc9\x94t'
p50
ssS'manage'
p51
(dp52
g6
(dp53
g8
I0
sg9
S'manage.html'
p54
sg11
g51
sg13
g14
(g15
g16
NtRp55
(dp56
g19
I1
sg20
I0
sg21
I6
sg22
I0
sg23
I0
sg24
I0
sbssg25
S'\xf43~\xa0\xbd\x86^\xde\xdeZp\xaf|\r\xfau'
p57
ssS'puuublic_urls'
p58
(dp59
g6
(dp60
g8
I0
sg9
S'puuublic_urls.html'
p61
sg11
S'puuublic/urls'
p62
sg13
g14
(g15
g16
NtRp63
(dp64
g19
I1
sg20
I0
sg21
I9
sg22
I0
sg23
I0
sg24
I0
sbssg25
S'\xf85\rG\x13\xa2\x14\x00\x13\xa7\xd8\xb7\x95\x12\x88\x9c'
p65
ssS'publication_models'
p66
(dp67
g6
(dp68
g8
I0
sg9
S'publication_models.html'
p69
sg11
S'publication/models'
p70
sg13
g14
(g15
g16
NtRp71
(dp72
g19
I1
sg20
I0
sg21
I81
sg22
I0
sg23
I12
sg24
I0
sbssg25
S'8\x0c\x8eV}\xe8hns\x14\xf7\xe5u/j\xb8'
p73
ssS'website_urls'
p74
(dp75
g6
(dp76
g8
I0
sg9
S'website_urls.html'
p77
sg11
S'website/urls'
p78
sg13
g14
(g15
g16
NtRp79
(dp80
g19
I1
sg20
I0
sg21
I3
sg22
I0
sg23
I0
sg24
I0
sbssg25
S'W:\xe9\r\xb4*e\x1f\xfe\x9a\x8f\x02\x00\xab\xcaV'
p81
ssS'website_views'
p82
(dp83
g6
(dp84
g8
I0
sg9
S'website_views.html'
p85
sg11
S'website/views'
p86
sg13
g14
(g15
g16
NtRp87
(dp88
g19
I1
sg20
I0
sg21
I85
sg22
I0
sg23
I61
sg24
I0
sbssg25
S'Tcg\x1c\xef\xfd\x1bb\xefz\x8f\xc7t\x8c\xdd\x05'
p89
ssS'friendship_admin'
p90
(dp91
g6
(dp92
g8
I0
sg9
S'friendship_admin.html'
p93
sg11
S'friendship/admin'
p94
sg13
g14
(g15
g16
NtRp95
(dp96
g19
I1
sg20
I0
sg21
I16
sg22
I0
sg23
I0
sg24
I0
sbssg25
S'\xfdPOd\x1f}\xed\xcc,(T\x12\x00\x01\xc2}'
p97
ssS'website_models'
p98
(dp99
g6
(dp100
g8
I0
sg9
S'website_models.html'
p101
sg11
S'website/models'
p102
sg13
g14
(g15
g16
NtRp103
(dp104
g19
I1
sg20
I0
sg21
I32
sg22
I0
sg23
I5
sg24
I0
sbssg25
S'\x16)I\xbb\xec~>\xcd\x0f\xb7\xa8\x8fo\x88\xebU'
p105
ssS'website_admin'
p106
(dp107
g6
(dp108
g8
I0
sg9
S'website_admin.html'
p109
sg11
S'website/admin'
p110
sg13
g14
(g15
g16
NtRp111
(dp112
g19
I1
sg20
I0
sg21
I9
sg22
I0
sg23
I0
sg24
I0
sbssg25
S'\x90\xb0\x883zv\x93\x96\x96\x1b\xaa\xf9\x00\x00L('
p113
ssS'website_forms'
p114
(dp115
g6
(dp116
g8
I0
sg9
S'website_forms.html'
p117
sg11
S'website/forms'
p118
sg13
g14
(g15
g16
NtRp119
(dp120
g19
I1
sg20
I0
sg21
I11
sg22
I0
sg23
I2
sg24
I0
sbssg25
S'\x11\xc5Zz\x8b\xac\xe22\x8d\xd5!\xd9\x9a!\x03\x06'
p121
ssS'friendship___init__'
p122
(dp123
g6
(dp124
g8
I0
sg9
S'friendship___init__.html'
p125
sg11
S'friendship/__init__'
p126
sg13
g14
(g15
g16
NtRp127
(dp128
g19
I1
sg20
I0
sg21
I1
sg22
I0
sg23
I0
sg24
I0
sbssg25
S'QO\x1c\xc5\rf\t\x82\xa6D\xc5\xf9\x07\x87@*'
p129
ssS'publication_admin'
p130
(dp131
g6
(dp132
g8
I0
sg9
S'publication_admin.html'
p133
sg11
S'publication/admin'
p134
sg13
g14
(g15
g16
NtRp135
(dp136
g19
I1
sg20
I0
sg21
I14
sg22
I0
sg23
I1
sg24
I0
sbssg25
S'\x9f\xe3\xf8&T\xa5j\x8e\xdf\xe6\x9e\xa2\xb9\xa4\xc4h'
p137
ssS'core_tests'
p138
(dp139
g6
(dp140
g8
I0
sg9
S'core_tests.html'
p141
sg11
S'core/tests'
p142
sg13
g14
(g15
g16
NtRp143
(dp144
g19
I1
sg20
I0
sg21
I5
sg22
I0
sg23
I0
sg24
I0
sbssg25
S'\xd6\xa3h"&2bqUY\xbd\x1f|\x1b\x0f\x91'
p145
ssS'puuublic___init__'
p146
(dp147
g6
(dp148
g8
I0
sg9
S'puuublic___init__.html'
p149
sg11
S'puuublic/__init__'
p150
sg13
g14
(g15
g16
NtRp151
(dp152
g19
I1
sg20
I0
sg21
I0
sg22
I0
sg23
I0
sg24
I0
sbssg25
S'\xb0\xc8pN\xaf>\xa0\xbaz\x144\xe0A9\xb8?'
p153
ssS'core___init__'
p154
(dp155
g6
(dp156
g8
I0
sg9
S'core___init__.html'
p157
sg11
S'core/__init__'
p158
sg13
g14
(g15
g16
NtRp159
(dp160
g19
I1
sg20
I0
sg21
I1
sg22
I0
sg23
I0
sg24
I0
sbssg25
S'QO\x1c\xc5\rf\t\x82\xa6D\xc5\xf9\x07\x87@*'
p161
ssS'puuublic_settings'
p162
(dp163
g6
(dp164
g8
I0
sg9
S'puuublic_settings.html'
p165
sg11
S'puuublic/settings'
p166
sg13
g14
(g15
g16
NtRp167
(dp168
g19
I1
sg20
I0
sg21
I53
sg22
I0
sg23
I0
sg24
I0
sbssg25
S'\xa8\xf0\xd6@Bb\xd1\xbdf)\x1b\xe6R\xeb\xb2\xe0'
p169
ssS'core_managers'
p170
(dp171
g6
(dp172
g8
I0
sg9
S'core_managers.html'
p173
sg11
S'core/managers'
p174
sg13
g14
(g15
g16
NtRp175
(dp176
g19
I1
sg20
I0
sg21
I8
sg22
I0
sg23
I0
sg24
I0
sbssg25
S'\x95\xfc&L\x8b\t\x96\x91H\x02Ai\xfb|\x14\x1f'
p177
ssS'friendship_models'
p178
(dp179
g6
(dp180
g8
I0
sg9
S'friendship_models.html'
p181
sg11
S'friendship/models'
p182
sg13
g14
(g15
g16
NtRp183
(dp184
g19
I1
sg20
I0
sg21
I33
sg22
I0
sg23
I3
sg24
I0
sbssg25
S'@V\xcb\x01\xd5p\xf1\xd5.|${\xbfbN\xd8'
p185
ssS'publication_urls'
p186
(dp187
g6
(dp188
g8
I0
sg9
S'publication_urls.html'
p189
sg11
S'publication/urls'
p190
sg13
g14
(g15
g16
NtRp191
(dp192
g19
I1
sg20
I0
sg21
I3
sg22
I0
sg23
I0
sg24
I0
sbssg25
S'\xd6\x15\xbb\xd7\xa7\xb4\x85\xa1\x822\x8c\x90\x11\x03&\xf3'
p193
ssS'publication___init__'
p194
(dp195
g6
(dp196
g8
I0
sg9
S'publication___init__.html'
p197
sg11
S'publication/__init__'
p198
sg13
g14
(g15
g16
NtRp199
(dp200
g19
I1
sg20
I0
sg21
I1
sg22
I0
sg23
I0
sg24
I0
sbssg25
S'QO\x1c\xc5\rf\t\x82\xa6D\xc5\xf9\x07\x87@*'
p201
ssS'website_templatetags_default_image'
p202
(dp203
g6
(dp204
g8
I0
sg9
S'website_templatetags_default_image.html'
p205
sg11
S'website/templatetags/default_image'
p206
sg13
g14
(g15
g16
NtRp207
(dp208
g19
I1
sg20
I0
sg21
I7
sg22
I0
sg23
I2
sg24
I0
sbssg25
S'\x08\xa0#$\xfd*\xf0\xa3\xd8\xaaZ\x82\xbfmo='
p209
ssS'publication_tests_test_managers'
p210
(dp211
g6
(dp212
g8
I0
sg9
S'publication_tests_test_managers.html'
p213
sg11
S'publication/tests/test_managers'
p214
sg13
g14
(g15
g16
NtRp215
(dp216
g19
I1
sg20
I0
sg21
I22
sg22
I0
sg23
I0
sg24
I0
sbssg25
S'\xfc\xf5\x89W\x13X\x10\xc27\xde8(\xc5\x18\xceJ'
p217
ssS'website___init__'
p218
(dp219
g6
(dp220
g8
I0
sg9
S'website___init__.html'
p221
sg11
S'website/__init__'
p222
sg13
g14
(g15
g16
NtRp223
(dp224
g19
I1
sg20
I0
sg21
I1
sg22
I0
sg23
I0
sg24
I0
sbssg25
S'\x9aD\xec\xef\x0e\x9f\x1e\x9d\xfb\x142\x9d\xc0\x0ff"'
p225
ssS'core_models'
p226
(dp227
g6
(dp228
g8
I0
sg9
S'core_models.html'
p229
sg11
S'core/models'
p230
sg13
g14
(g15
g16
NtRp231
(dp232
g19
I1
sg20
I0
sg21
I16
sg22
I0
sg23
I0
sg24
I0
sbssg25
S'(x\x8b}\xcc\xe5\x07\xbeZ\xae\xaf\x1bT\xc7-\x83'
p233
ssS'friendship_tests___init__'
p234
(dp235
g6
(dp236
g8
I0
sg9
S'friendship_tests___init__.html'
p237
sg11
S'friendship/tests/__init__'
p238
sg13
g14
(g15
g16
NtRp239
(dp240
g19
I1
sg20
I0
sg21
I0
sg22
I0
sg23
I0
sg24
I0
sbssg25
S'\xb0\xc8pN\xaf>\xa0\xbaz\x144\xe0A9\xb8?'
p241
ssS'website_templatetags___init__'
p242
(dp243
g6
(dp244
g8
I0
sg9
S'website_templatetags___init__.html'
p245
sg11
S'website/templatetags/__init__'
p246
sg13
g14
(g15
g16
NtRp247
(dp248
g19
I1
sg20
I0
sg21
I0
sg22
I0
sg23
I0
sg24
I0
sbssg25
S'\xb0\xc8pN\xaf>\xa0\xbaz\x144\xe0A9\xb8?'
p249
ssS'friendship_forms'
p250
(dp251
g6
(dp252
g8
I0
sg9
S'friendship_forms.html'
p253
sg11
S'friendship/forms'
p254
sg13
g14
(g15
g16
NtRp255
(dp256
g19
I1
sg20
I0
sg21
I23
sg22
I0
sg23
I7
sg24
I0
sbssg25
S'\xac\x8a\xdf\x9aYq\x9b\xfd(\xe9\xb6\xa4y"\x11g'
p257
sssS'version'
p258
S'3.5.1'
p259
sS'settings'
p260
S'\x19\r\xe8~\x1e\xdb\xef\x9c\xc6\x1e\xcf0\xadM!\xf3'
p261
sS'format'
p262
I1
s.